target datalayout = "e-m:e-p270:32:32-p271:32:32-p272:64:64-i64:64-i128:128-f80:128-n8:16:32:64-S128"
target triple = "x86_64-pc-linux-gnu"

%struct.SnapshotData = type { i32, i32, i32, ptr, i32, ptr, i32, i8, i8, i8, i32, i32, ptr, i32, i32, %struct.pairingheap_node, i64 }
%struct.pairingheap_node = type { ptr, ptr, ptr }
%struct.__loadu_si128 = type { <2 x i64> }

; Function Attrs: alwaysinline nounwind uwtable
define internal i32 @_mm_movemask_epi8(<2 x i64> noundef %0) #8 {
  %2 = alloca <2 x i64>, align 16
  store <2 x i64> %0, ptr %2, align 16
  %3 = load <2 x i64>, ptr %2, align 16
  %4 = bitcast <2 x i64> %3 to <16 x i8>
  %5 = call i32 @llvm.x86.sse2.pmovmskb.128(<16 x i8> %4)
  ret i32 %5
}

; Function Attrs: inlinehint nounwind uwtable
define internal zeroext i1 @vector8_is_highbit_set(<2 x i64> noundef %0) #7 {
  %2 = alloca <2 x i64>, align 16
  store <2 x i64> %0, ptr %2, align 16
  %3 = load <2 x i64>, ptr %2, align 16
  %4 = call i32 @_mm_movemask_epi8(<2 x i64> noundef %3)
  %5 = icmp ne i32 %4, 0
  ret i1 %5
}

; Function Attrs: alwaysinline nounwind uwtable
define internal <2 x i64> @_mm_or_si128(<2 x i64> noundef %0, <2 x i64> noundef %1) #8 {
  %3 = alloca <2 x i64>, align 16
  %4 = alloca <2 x i64>, align 16
  store <2 x i64> %0, ptr %3, align 16
  store <2 x i64> %1, ptr %4, align 16
  %5 = load <2 x i64>, ptr %3, align 16
  %6 = load <2 x i64>, ptr %4, align 16
  %7 = or <2 x i64> %5, %6
  ret <2 x i64> %7
}

; Function Attrs: alwaysinline nounwind uwtable
define internal <2 x i64> @_mm_cmpeq_epi32(<2 x i64> noundef %0, <2 x i64> noundef %1) #8 {
  %3 = alloca <2 x i64>, align 16
  %4 = alloca <2 x i64>, align 16
  store <2 x i64> %0, ptr %3, align 16
  store <2 x i64> %1, ptr %4, align 16
  %5 = load <2 x i64>, ptr %3, align 16
  %6 = bitcast <2 x i64> %5 to <4 x i32>
  %7 = load <2 x i64>, ptr %4, align 16
  %8 = bitcast <2 x i64> %7 to <4 x i32>
  %9 = icmp eq <4 x i32> %6, %8
  %10 = sext <4 x i1> %9 to <4 x i32>
  %11 = bitcast <4 x i32> %10 to <2 x i64>
  ret <2 x i64> %11
}

; Function Attrs: alwaysinline nounwind uwtable
define internal <2 x i64> @_mm_loadu_si128(ptr noundef %0) #8 {
  %2 = alloca ptr, align 8
  store ptr %0, ptr %2, align 8
  %3 = load ptr, ptr %2, align 8
  %4 = getelementptr inbounds nuw %struct.__loadu_si128, ptr %3, i32 0, i32 0
  %5 = load <2 x i64>, ptr %4, align 1
  ret <2 x i64> %5
}

; Function Attrs: alwaysinline nounwind uwtable
define internal <2 x i64> @_mm_set_epi32(i32 noundef %0, i32 noundef %1, i32 noundef %2, i32 noundef %3) #8 {
  %5 = alloca i32, align 4
  %6 = alloca i32, align 4
  %7 = alloca i32, align 4
  %8 = alloca i32, align 4
  %9 = alloca <4 x i32>, align 16
  store i32 %0, ptr %5, align 4
  store i32 %1, ptr %6, align 4
  store i32 %2, ptr %7, align 4
  store i32 %3, ptr %8, align 4
  %10 = load i32, ptr %8, align 4
  %11 = insertelement <4 x i32> poison, i32 %10, i32 0
  %12 = load i32, ptr %7, align 4
  %13 = insertelement <4 x i32> %11, i32 %12, i32 1
  %14 = load i32, ptr %6, align 4
  %15 = insertelement <4 x i32> %13, i32 %14, i32 2
  %16 = load i32, ptr %5, align 4
  %17 = insertelement <4 x i32> %15, i32 %16, i32 3
  store <4 x i32> %17, ptr %9, align 16
  %18 = load <4 x i32>, ptr %9, align 16
  %19 = bitcast <4 x i32> %18 to <2 x i64>
  ret <2 x i64> %19
}

; Function Attrs: inlinehint nounwind uwtable
define internal zeroext i1 @vector32_is_highbit_set(<2 x i64> noundef %0) #7 {
  %2 = alloca <2 x i64>, align 16
  store <2 x i64> %0, ptr %2, align 16
  %3 = load <2 x i64>, ptr %2, align 16
  %4 = call zeroext i1 @vector8_is_highbit_set(<2 x i64> noundef %3)
  ret i1 %4
}

; Function Attrs: inlinehint nounwind uwtable
define internal <2 x i64> @vector32_or(<2 x i64> noundef %0, <2 x i64> noundef %1) #7 {
  %3 = alloca <2 x i64>, align 16
  %4 = alloca <2 x i64>, align 16
  store <2 x i64> %0, ptr %3, align 16
  store <2 x i64> %1, ptr %4, align 16
  %5 = load <2 x i64>, ptr %3, align 16
  %6 = load <2 x i64>, ptr %4, align 16
  %7 = call <2 x i64> @_mm_or_si128(<2 x i64> noundef %5, <2 x i64> noundef %6)
  ret <2 x i64> %7
}

; Function Attrs: inlinehint nounwind uwtable
define internal <2 x i64> @vector32_eq(<2 x i64> noundef %0, <2 x i64> noundef %1) #7 {
  %3 = alloca <2 x i64>, align 16
  %4 = alloca <2 x i64>, align 16
  store <2 x i64> %0, ptr %3, align 16
  store <2 x i64> %1, ptr %4, align 16
  %5 = load <2 x i64>, ptr %3, align 16
  %6 = load <2 x i64>, ptr %4, align 16
  %7 = call <2 x i64> @_mm_cmpeq_epi32(<2 x i64> noundef %5, <2 x i64> noundef %6)
  ret <2 x i64> %7
}

; Function Attrs: inlinehint nounwind uwtable
define internal void @vector32_load(ptr noundef %0, ptr noundef %1) #7 {
  %3 = alloca ptr, align 8
  %4 = alloca ptr, align 8
  store ptr %0, ptr %3, align 8
  store ptr %1, ptr %4, align 8
  %5 = load ptr, ptr %4, align 8
  %6 = call <2 x i64> @_mm_loadu_si128(ptr noundef %5)
  %7 = load ptr, ptr %3, align 8
  store <2 x i64> %6, ptr %7, align 16
  ret void
}

; Function Attrs: alwaysinline nounwind uwtable
define internal <2 x i64> @_mm_set1_epi32(i32 noundef %0) #8 {
  %2 = alloca i32, align 4
  store i32 %0, ptr %2, align 4
  %3 = load i32, ptr %2, align 4
  %4 = load i32, ptr %2, align 4
  %5 = load i32, ptr %2, align 4
  %6 = load i32, ptr %2, align 4
  %7 = call <2 x i64> @_mm_set_epi32(i32 noundef %3, i32 noundef %4, i32 noundef %5, i32 noundef %6)
  ret <2 x i64> %7
}

; Function Attrs: inlinehint nounwind uwtable
define internal zeroext i1 @pg_lfind32_simd_helper(<2 x i64> noundef %0, ptr noundef %1) #7 {
  %3 = alloca <2 x i64>, align 16
  %4 = alloca ptr, align 8
  %5 = alloca i32, align 4
  %6 = alloca <2 x i64>, align 16
  %7 = alloca <2 x i64>, align 16
  %8 = alloca <2 x i64>, align 16
  %9 = alloca <2 x i64>, align 16
  %10 = alloca <2 x i64>, align 16
  %11 = alloca <2 x i64>, align 16
  %12 = alloca <2 x i64>, align 16
  %13 = alloca <2 x i64>, align 16
  %14 = alloca <2 x i64>, align 16
  %15 = alloca <2 x i64>, align 16
  %16 = alloca <2 x i64>, align 16
  store <2 x i64> %0, ptr %3, align 16
  store ptr %1, ptr %4, align 8
  call void @llvm.lifetime.start.p0(i64 4, ptr %5) #10
  store i32 4, ptr %5, align 4
  call void @llvm.lifetime.start.p0(i64 16, ptr %6) #10
  call void @llvm.lifetime.start.p0(i64 16, ptr %7) #10
  call void @llvm.lifetime.start.p0(i64 16, ptr %8) #10
  call void @llvm.lifetime.start.p0(i64 16, ptr %9) #10
  call void @llvm.lifetime.start.p0(i64 16, ptr %10) #10
  call void @llvm.lifetime.start.p0(i64 16, ptr %11) #10
  call void @llvm.lifetime.start.p0(i64 16, ptr %12) #10
  call void @llvm.lifetime.start.p0(i64 16, ptr %13) #10
  call void @llvm.lifetime.start.p0(i64 16, ptr %14) #10
  call void @llvm.lifetime.start.p0(i64 16, ptr %15) #10
  call void @llvm.lifetime.start.p0(i64 16, ptr %16) #10
  %17 = load ptr, ptr %4, align 8
  call void @vector32_load(ptr noundef %6, ptr noundef %17)
  %18 = load ptr, ptr %4, align 8
  %19 = getelementptr inbounds nuw i32, ptr %18, i64 4
  call void @vector32_load(ptr noundef %7, ptr noundef %19)
  %20 = load ptr, ptr %4, align 8
  %21 = getelementptr inbounds nuw i32, ptr %20, i64 8
  call void @vector32_load(ptr noundef %8, ptr noundef %21)
  %22 = load ptr, ptr %4, align 8
  %23 = getelementptr inbounds nuw i32, ptr %22, i64 12
  call void @vector32_load(ptr noundef %9, ptr noundef %23)
  %24 = load <2 x i64>, ptr %3, align 16
  %25 = load <2 x i64>, ptr %6, align 16
  %26 = call <2 x i64> @vector32_eq(<2 x i64> noundef %24, <2 x i64> noundef %25)
  store <2 x i64> %26, ptr %10, align 16
  %27 = load <2 x i64>, ptr %3, align 16
  %28 = load <2 x i64>, ptr %7, align 16
  %29 = call <2 x i64> @vector32_eq(<2 x i64> noundef %27, <2 x i64> noundef %28)
  store <2 x i64> %29, ptr %11, align 16
  %30 = load <2 x i64>, ptr %3, align 16
  %31 = load <2 x i64>, ptr %8, align 16
  %32 = call <2 x i64> @vector32_eq(<2 x i64> noundef %30, <2 x i64> noundef %31)
  store <2 x i64> %32, ptr %12, align 16
  %33 = load <2 x i64>, ptr %3, align 16
  %34 = load <2 x i64>, ptr %9, align 16
  %35 = call <2 x i64> @vector32_eq(<2 x i64> noundef %33, <2 x i64> noundef %34)
  store <2 x i64> %35, ptr %13, align 16
  %36 = load <2 x i64>, ptr %10, align 16
  %37 = load <2 x i64>, ptr %11, align 16
  %38 = call <2 x i64> @vector32_or(<2 x i64> noundef %36, <2 x i64> noundef %37)
  store <2 x i64> %38, ptr %14, align 16
  %39 = load <2 x i64>, ptr %12, align 16
  %40 = load <2 x i64>, ptr %13, align 16
  %41 = call <2 x i64> @vector32_or(<2 x i64> noundef %39, <2 x i64> noundef %40)
  store <2 x i64> %41, ptr %15, align 16
  %42 = load <2 x i64>, ptr %14, align 16
  %43 = load <2 x i64>, ptr %15, align 16
  %44 = call <2 x i64> @vector32_or(<2 x i64> noundef %42, <2 x i64> noundef %43)
  store <2 x i64> %44, ptr %16, align 16
  %45 = load <2 x i64>, ptr %16, align 16
  %46 = call zeroext i1 @vector32_is_highbit_set(<2 x i64> noundef %45)
  call void @llvm.lifetime.end.p0(i64 16, ptr %16) #10
  call void @llvm.lifetime.end.p0(i64 16, ptr %15) #10
  call void @llvm.lifetime.end.p0(i64 16, ptr %14) #10
  call void @llvm.lifetime.end.p0(i64 16, ptr %13) #10
  call void @llvm.lifetime.end.p0(i64 16, ptr %12) #10
  call void @llvm.lifetime.end.p0(i64 16, ptr %11) #10
  call void @llvm.lifetime.end.p0(i64 16, ptr %10) #10
  call void @llvm.lifetime.end.p0(i64 16, ptr %9) #10
  call void @llvm.lifetime.end.p0(i64 16, ptr %8) #10
  call void @llvm.lifetime.end.p0(i64 16, ptr %7) #10
  call void @llvm.lifetime.end.p0(i64 16, ptr %6) #10
  call void @llvm.lifetime.end.p0(i64 4, ptr %5) #10
  ret i1 %46
}

; Function Attrs: inlinehint nounwind uwtable
define internal zeroext i1 @pg_lfind32_one_by_one_helper(i32 noundef %0, ptr noundef %1, i32 noundef %2) #3 {
  %4 = alloca i1, align 1
  %5 = alloca i32, align 4
  %6 = alloca ptr, align 8
  %7 = alloca i32, align 4
  %8 = alloca i32, align 4
  %9 = alloca i32, align 4
  store i32 %0, ptr %5, align 4
  store ptr %1, ptr %6, align 8
  store i32 %2, ptr %7, align 4
  call void @llvm.lifetime.start.p0(i64 4, ptr %8) #10
  store i32 0, ptr %8, align 4
  br label %10

10:                                               ; preds = %25, %3
  %11 = load i32, ptr %8, align 4
  %12 = load i32, ptr %7, align 4
  %13 = icmp ult i32 %11, %12
  br i1 %13, label %15, label %14

14:                                               ; preds = %10
  store i32 2, ptr %9, align 4
  br label %28

15:                                               ; preds = %10
  %16 = load i32, ptr %5, align 4
  %17 = load ptr, ptr %6, align 8
  %18 = load i32, ptr %8, align 4
  %19 = zext i32 %18 to i64
  %20 = getelementptr inbounds nuw i32, ptr %17, i64 %19
  %21 = load i32, ptr %20, align 4
  %22 = icmp eq i32 %16, %21
  br i1 %22, label %23, label %24

23:                                               ; preds = %15
  store i1 true, ptr %4, align 1
  store i32 1, ptr %9, align 4
  br label %28

24:                                               ; preds = %15
  br label %25

25:                                               ; preds = %24
  %26 = load i32, ptr %8, align 4
  %27 = add i32 %26, 1
  store i32 %27, ptr %8, align 4
  br label %10, !llvm.loop !48

28:                                               ; preds = %23, %14
  call void @llvm.lifetime.end.p0(i64 4, ptr %8) #10
  %29 = load i32, ptr %9, align 4
  switch i32 %29, label %33 [
    i32 2, label %30
    i32 1, label %31
  ]

30:                                               ; preds = %28
  store i1 false, ptr %4, align 1
  br label %31

31:                                               ; preds = %30, %28
  %32 = load i1, ptr %4, align 1
  ret i1 %32

33:                                               ; preds = %28
  unreachable
}

; Function Attrs: inlinehint nounwind uwtable
define internal <2 x i64> @vector32_broadcast(i32 noundef %0) #7 {
  %2 = alloca i32, align 4
  store i32 %0, ptr %2, align 4
  %3 = load i32, ptr %2, align 4
  %4 = call <2 x i64> @_mm_set1_epi32(i32 noundef %3)
  ret <2 x i64> %4
}

; Function Attrs: inlinehint nounwind uwtable
define internal zeroext i1 @pg_lfind32(i32 noundef %0, ptr noundef %1, i32 noundef %2) #7 {
  %4 = alloca i1, align 1
  %5 = alloca i32, align 4
  %6 = alloca ptr, align 8
  %7 = alloca i32, align 4
  %8 = alloca i32, align 4
  %9 = alloca <2 x i64>, align 16
  %10 = alloca i32, align 4
  %11 = alloca i32, align 4
  %12 = alloca i32, align 4
  %13 = alloca i32, align 4
  store i32 %0, ptr %5, align 4
  store ptr %1, ptr %6, align 8
  store i32 %2, ptr %7, align 4
  call void @llvm.lifetime.start.p0(i64 4, ptr %8) #10
  store i32 0, ptr %8, align 4
  call void @llvm.lifetime.start.p0(i64 16, ptr %9) #10
  %14 = load i32, ptr %5, align 4
  %15 = call <2 x i64> @vector32_broadcast(i32 noundef %14)
  store <2 x i64> %15, ptr %9, align 16
  call void @llvm.lifetime.start.p0(i64 4, ptr %10) #10
  store i32 4, ptr %10, align 4
  call void @llvm.lifetime.start.p0(i64 4, ptr %11) #10
  store i32 16, ptr %11, align 4
  call void @llvm.lifetime.start.p0(i64 4, ptr %12) #10
  %16 = load i32, ptr %7, align 4
  %17 = and i32 %16, -16
  store i32 %17, ptr %12, align 4
  %18 = load i32, ptr %7, align 4
  %19 = icmp ult i32 %18, 16
  br i1 %19, label %20, label %25

20:                                               ; preds = %3
  %21 = load i32, ptr %5, align 4
  %22 = load ptr, ptr %6, align 8
  %23 = load i32, ptr %7, align 4
  %24 = call zeroext i1 @pg_lfind32_one_by_one_helper(i32 noundef %21, ptr noundef %22, i32 noundef %23)
  store i1 %24, ptr %4, align 1
  store i32 1, ptr %13, align 4
  br label %49

25:                                               ; preds = %3
  br label %26

26:                                               ; preds = %37, %25
  %27 = load <2 x i64>, ptr %9, align 16
  %28 = load ptr, ptr %6, align 8
  %29 = load i32, ptr %8, align 4
  %30 = zext i32 %29 to i64
  %31 = getelementptr inbounds nuw i32, ptr %28, i64 %30
  %32 = call zeroext i1 @pg_lfind32_simd_helper(<2 x i64> noundef %27, ptr noundef %31)
  br i1 %32, label %33, label %34

33:                                               ; preds = %26
  store i1 true, ptr %4, align 1
  store i32 1, ptr %13, align 4
  br label %49

34:                                               ; preds = %26
  %35 = load i32, ptr %8, align 4
  %36 = add i32 %35, 16
  store i32 %36, ptr %8, align 4
  br label %37

37:                                               ; preds = %34
  %38 = load i32, ptr %8, align 4
  %39 = load i32, ptr %12, align 4
  %40 = icmp ult i32 %38, %39
  br i1 %40, label %26, label %41, !llvm.loop !47

41:                                               ; preds = %37
  %42 = load <2 x i64>, ptr %9, align 16
  %43 = load ptr, ptr %6, align 8
  %44 = load i32, ptr %7, align 4
  %45 = sub i32 %44, 16
  %46 = zext i32 %45 to i64
  %47 = getelementptr inbounds nuw i32, ptr %43, i64 %46
  %48 = call zeroext i1 @pg_lfind32_simd_helper(<2 x i64> noundef %42, ptr noundef %47)
  store i1 %48, ptr %4, align 1
  store i32 1, ptr %13, align 4
  br label %49

49:                                               ; preds = %41, %33, %20
  call void @llvm.lifetime.end.p0(i64 4, ptr %12) #10
  call void @llvm.lifetime.end.p0(i64 4, ptr %11) #10
  call void @llvm.lifetime.end.p0(i64 4, ptr %10) #10
  call void @llvm.lifetime.end.p0(i64 16, ptr %9) #10
  call void @llvm.lifetime.end.p0(i64 4, ptr %8) #10
  %50 = load i1, ptr %4, align 1
  ret i1 %50
}

; Function Attrs: nounwind uwtable
define internal zeroext i1 @XidIsConcurrent(i32 noundef %0) #0 {
  %2 = alloca i1, align 1
  %3 = alloca i32, align 4
  %4 = alloca ptr, align 8
  %5 = alloca i32, align 4
  store i32 %0, ptr %3, align 4
  call void @llvm.lifetime.start.p0(i64 8, ptr %4) #10
  %6 = call ptr @GetTransactionSnapshot()
  store ptr %6, ptr %4, align 8
  %7 = load i32, ptr %3, align 4
  %8 = load ptr, ptr %4, align 8
  %9 = getelementptr inbounds nuw %struct.SnapshotData, ptr %8, i32 0, i32 1
  %10 = load i32, ptr %9, align 4
  %11 = call zeroext i1 @TransactionIdPrecedes(i32 noundef %7, i32 noundef %10)
  br i1 %11, label %12, label %13

12:                                               ; preds = %1
  store i1 false, ptr %2, align 1
  store i32 1, ptr %5, align 4
  br label %29

13:                                               ; preds = %1
  %14 = load i32, ptr %3, align 4
  %15 = load ptr, ptr %4, align 8
  %16 = getelementptr inbounds nuw %struct.SnapshotData, ptr %15, i32 0, i32 2
  %17 = load i32, ptr %16, align 8
  %18 = call zeroext i1 @TransactionIdFollowsOrEquals(i32 noundef %14, i32 noundef %17)
  br i1 %18, label %19, label %20

19:                                               ; preds = %13
  store i1 true, ptr %2, align 1
  store i32 1, ptr %5, align 4
  br label %29

20:                                               ; preds = %13
  %21 = load i32, ptr %3, align 4
  %22 = load ptr, ptr %4, align 8
  %23 = getelementptr inbounds nuw %struct.SnapshotData, ptr %22, i32 0, i32 3
  %24 = load ptr, ptr %23, align 8
  %25 = load ptr, ptr %4, align 8
  %26 = getelementptr inbounds nuw %struct.SnapshotData, ptr %25, i32 0, i32 4
  %27 = load i32, ptr %26, align 8
  %28 = call zeroext i1 @pg_lfind32(i32 noundef %21, ptr noundef %24, i32 noundef %27)
  store i1 %28, ptr %2, align 1
  store i32 1, ptr %5, align 4
  br label %29

29:                                               ; preds = %20, %19, %12
  call void @llvm.lifetime.end.p0(i64 8, ptr %4) #10
  %30 = load i1, ptr %2, align 1
  ret i1 %30
}