; Function Attrs: nounwind uwtable
define internal fastcc zeroext i1 @XidIsConcurrent(i32 noundef %0) unnamed_addr #6 {
  %2 = tail call ptr @GetTransactionSnapshot() #12
  %3 = getelementptr inbounds nuw i8, ptr %2, i64 4
  %4 = load i32, ptr %3, align 4
  %5 = tail call zeroext i1 @TransactionIdPrecedes(i32 noundef %0, i32 noundef %4) #12
  br i1 %5, label %pg_lfind32.exit, label %6

6:                                                ; preds = %1
  %7 = getelementptr inbounds nuw i8, ptr %2, i64 8
  %8 = load i32, ptr %7, align 8
  %9 = tail call zeroext i1 @TransactionIdFollowsOrEquals(i32 noundef %0, i32 noundef %8) #12
  br i1 %9, label %pg_lfind32.exit, label %10

10:                                               ; preds = %6
  %11 = getelementptr inbounds nuw i8, ptr %2, i64 16
  %12 = load ptr, ptr %11, align 8
  %13 = getelementptr inbounds nuw i8, ptr %2, i64 24
  %14 = load i32, ptr %13, align 8
  %15 = insertelement <4 x i32> poison, i32 %0, i64 0
  %16 = shufflevector <4 x i32> %15, <4 x i32> poison, <4 x i32> zeroinitializer
  %17 = icmp ult i32 %14, 16
  br i1 %17, label %20, label %.preheader.preheader.i

.preheader.preheader.i:                           ; preds = %10
  %18 = and i32 %14, -16
  %19 = zext i32 %18 to i64
  br label %.preheader.i

20:                                               ; preds = %10
  %.not9.not.i.i = icmp eq i32 %14, 0
  br i1 %.not9.not.i.i, label %pg_lfind32.exit, label %.lr.ph.preheader.i.i

.lr.ph.preheader.i.i:                             ; preds = %20
  %wide.trip.count.i.i = zext nneg i32 %14 to i64
  br label %.lr.ph.i.i

.lr.ph.i.i:                                       ; preds = %.lr.ph.i.i, %.lr.ph.preheader.i.i
  %indvars.iv.i.i = phi i64 [ 0, %.lr.ph.preheader.i.i ], [ %indvars.iv.next.i.i, %.lr.ph.i.i ]
  %21 = getelementptr inbounds nuw i32, ptr %12, i64 %indvars.iv.i.i
  %22 = load i32, ptr %21, align 4
  %23 = icmp eq i32 %0, %22
  %indvars.iv.next.i.i = add nuw nsw i64 %indvars.iv.i.i, 1
  %exitcond.not.i.i = icmp eq i64 %indvars.iv.next.i.i, %wide.trip.count.i.i
  %or.cond = select i1 %23, i1 true, i1 %exitcond.not.i.i
  br i1 %or.cond, label %pg_lfind32.exit, label %.lr.ph.i.i, !llvm.loop !37

.preheader.i:                                     ; preds = %39, %.preheader.preheader.i
  %indvars.iv.i = phi i64 [ 0, %.preheader.preheader.i ], [ %indvars.iv.next.i, %39 ]
  %24 = getelementptr inbounds nuw i32, ptr %12, i64 %indvars.iv.i
  %.val20.i.i = load <4 x i32>, ptr %24, align 1
  %25 = getelementptr inbounds nuw i8, ptr %24, i64 16
  %.val1421.i.i = load <4 x i32>, ptr %25, align 1
  %26 = getelementptr inbounds nuw i8, ptr %24, i64 32
  %.val1522.i.i = load <4 x i32>, ptr %26, align 1
  %27 = getelementptr inbounds nuw i8, ptr %24, i64 48
  %.val1623.i.i = load <4 x i32>, ptr %27, align 1
  %28 = icmp eq <4 x i32> %.val20.i.i, %16
  %29 = icmp eq <4 x i32> %.val1421.i.i, %16
  %30 = icmp eq <4 x i32> %.val1522.i.i, %16
  %31 = icmp eq <4 x i32> %.val1623.i.i, %16
  %32 = or <4 x i1> %28, %29
  %33 = or <4 x i1> %30, %31
  %34 = or <4 x i1> %32, %33
  %35 = sext <4 x i1> %34 to <4 x i32>
  %36 = bitcast <4 x i32> %35 to <16 x i8>
  %37 = icmp slt <16 x i8> %36, zeroinitializer
  %38 = bitcast <16 x i1> %37 to i16
  %.not.i = icmp eq i16 %38, 0
  br i1 %.not.i, label %39, label %pg_lfind32.exit

39:                                               ; preds = %.preheader.i
  %indvars.iv.next.i = add nuw nsw i64 %indvars.iv.i, 16
  %40 = icmp samesign ult i64 %indvars.iv.next.i, %19
  br i1 %40, label %.preheader.i, label %41, !llvm.loop !38

41:                                               ; preds = %39
  %42 = add i32 %14, -16
  %43 = zext i32 %42 to i64
  %44 = getelementptr inbounds nuw i32, ptr %12, i64 %43
  %.val20.i18.i = load <4 x i32>, ptr %44, align 1
  %45 = getelementptr inbounds nuw i8, ptr %44, i64 16
  %.val1421.i19.i = load <4 x i32>, ptr %45, align 1
  %46 = getelementptr inbounds nuw i8, ptr %44, i64 32
  %.val1522.i20.i = load <4 x i32>, ptr %46, align 1
  %47 = getelementptr inbounds nuw i8, ptr %44, i64 48
  %.val1623.i21.i = load <4 x i32>, ptr %47, align 1
  %48 = icmp eq <4 x i32> %.val20.i18.i, %16
  %49 = icmp eq <4 x i32> %.val1421.i19.i, %16
  %50 = icmp eq <4 x i32> %.val1522.i20.i, %16
  %51 = icmp eq <4 x i32> %.val1623.i21.i, %16
  %52 = or <4 x i1> %48, %49
  %53 = or <4 x i1> %50, %51
  %54 = or <4 x i1> %52, %53
  %55 = sext <4 x i1> %54 to <4 x i32>
  %56 = bitcast <4 x i32> %55 to <16 x i8>
  %57 = icmp slt <16 x i8> %56, zeroinitializer
  %58 = bitcast <16 x i1> %57 to i16
  %59 = icmp ne i16 %58, 0
  br label %pg_lfind32.exit

pg_lfind32.exit:                                  ; preds = %.preheader.i, %.lr.ph.i.i, %41, %20, %6, %1
  %.0 = phi i1 [ false, %1 ], [ true, %6 ], [ %59, %41 ], [ false, %20 ], [ %23, %.lr.ph.i.i ], [ true, %.preheader.i ]
  ret i1 %.0
}